; Function Attrs: mustprogress uwtable
define void @_ZN3zmq15tcp_connecter_t11timer_eventEi(ptr noundef nonnull align 8 dereferenceable(1552) %0, i32 noundef %1) unnamed_addr #0 align 2 {
  %3 = icmp eq i32 %1, 2
  br i1 %3, label %4, label %6

4:                                                ; preds = %2
  %5 = getelementptr inbounds nuw i8, ptr %0, i64 1544
  store i8 0, ptr %5, align 8, !tbaa !6
  tail call void @_ZN3zmq23stream_connecter_base_t9rm_handleEv(ptr noundef nonnull align 8 dereferenceable(1544) %0)
  tail call void @_ZN3zmq23stream_connecter_base_t5closeEv(ptr noundef nonnull align 8 dereferenceable(1544) %0)
  tail call void @_ZN3zmq23stream_connecter_base_t19add_reconnect_timerEv(ptr noundef nonnull align 8 dereferenceable(1544) %0)
  br label %7

6:                                                ; preds = %2
  tail call void @_ZN3zmq23stream_connecter_base_t11timer_eventEi(ptr noundef nonnull align 8 dereferenceable(1544) %0, i32 noundef %1)
  br label %7

7:                                                ; preds = %6, %4
  ret void
}